; Function Attrs: nounwind uwtable
define range(i32 0, 2) i32 @dlp_has_cc(ptr noundef %0, i64 noundef %1, i32 noundef %2) local_unnamed_addr #0 {
  %4 = icmp eq ptr %0, null
  %5 = icmp ult i64 %1, 13
  %or.cond.i = or i1 %4, %5
  br i1 %or.cond.i, label %contains_cc.exit, label %6

6:                                                ; preds = %3
  %7 = getelementptr inbounds i8, ptr %0, i64 %1
  %8 = icmp sgt i64 %1, 0
  br i1 %8, label %.lr.ph.i, label %contains_cc.exit

.lr.ph.i:                                         ; preds = %6
  %9 = tail call ptr @__ctype_b_loc() #9
  %10 = ptrtoint ptr %0 to i64
  %.neg.i = add i64 %1, %10
  br label %.lr.ph.split.us.i

.lr.ph.split.us.i:                                ; preds = %30, %.lr.ph.i
  %.02532.us.i = phi ptr [ %31, %30 ], [ %0, %.lr.ph.i ]
  %11 = load ptr, ptr %9, align 8
  %12 = load i8, ptr %.02532.us.i, align 1
  %13 = zext i8 %12 to i64
  %14 = getelementptr inbounds nuw i16, ptr %11, i64 %13
  %15 = load i16, ptr %14, align 2
  %16 = and i16 %15, 2048
  %.not.us.i = icmp eq i16 %16, 0
  br i1 %.not.us.i, label %30, label %17

17:                                               ; preds = %.lr.ph.split.us.i
  %18 = icmp eq ptr %.02532.us.i, %0
  br i1 %18, label %26, label %19

19:                                               ; preds = %17
  %20 = getelementptr inbounds i8, ptr %.02532.us.i, i64 -1
  %21 = load i8, ptr %20, align 1
  %22 = zext i8 %21 to i64
  %23 = getelementptr inbounds nuw i16, ptr %11, i64 %22
  %24 = load i16, ptr %23, align 2
  %25 = and i16 %24, 2048
  %.not29.us.i = icmp eq i16 %25, 0
  br i1 %.not29.us.i, label %26, label %30

26:                                               ; preds = %19, %17
  %27 = ptrtoint ptr %.02532.us.i to i64
  %28 = sub i64 %.neg.i, %27
  %29 = tail call i32 @dlp_is_valid_cc(ptr noundef nonnull %.02532.us.i, i64 noundef %28, i32 noundef %2)
  %.not30.us.i = icmp eq i32 %29, 0
  br i1 %.not30.us.i, label %30, label %contains_cc.exit

30:                                               ; preds = %26, %19, %.lr.ph.split.us.i
  %31 = getelementptr inbounds nuw i8, ptr %.02532.us.i, i64 1
  %32 = icmp ult ptr %31, %7
  br i1 %32, label %.lr.ph.split.us.i, label %contains_cc.exit

contains_cc.exit:                                 ; preds = %26, %30, %3, %6
  %.024.i = phi i32 [ 0, %3 ], [ 0, %6 ], [ 0, %30 ], [ 1, %26 ]
  ret i32 %.024.i
}